;
; Definition file of fmt.dll
; Automatic generated by gendef
; written by Kai Tietz 2008
;
LIBRARY "fmt.dll"
EXPORTS
??$?0Vlocale@std@@$0A@@locale_ref@v12@fmt@@QEAA@AEBVlocale@std@@@Z
??$append@D@?$buffer@D@detail@v12@fmt@@QEAAXPEBD0@Z
??$append@_W@?$buffer@_W@detail@v12@fmt@@QEAAXPEB_W0@Z
??$decimal_point_impl@D@detail@v12@fmt@@YADVlocale_ref@12@@Z
??$decimal_point_impl@_W@detail@v12@fmt@@YA_WVlocale_ref@12@@Z
??$get@Vlocale@std@@@locale_ref@v12@fmt@@QEBA?AVlocale@std@@XZ
??$thousands_sep_impl@D@detail@v12@fmt@@YA?AU?$thousands_sep_result@D@012@Vlocale_ref@12@@Z
??$thousands_sep_impl@_W@detail@v12@fmt@@YA?AU?$thousands_sep_result@_W@012@Vlocale_ref@12@@Z
??$to_decimal@M@dragonbox@detail@v12@fmt@@YA?AU?$decimal_fp@M@0123@M@Z
??$to_decimal@N@dragonbox@detail@v12@fmt@@YA?AU?$decimal_fp@N@0123@N@Z
??0buffered_file@v12@fmt@@QEAA@V?$basic_cstring_view@D@12@0@Z
??0file@v12@fmt@@AEAA@H@Z
??0file@v12@fmt@@QEAA@$$QEAV012@@Z
??0file@v12@fmt@@QEAA@V?$basic_cstring_view@D@12@H@Z
??0file@v12@fmt@@QEAA@XZ
??0ostream@v12@fmt@@AEAA@V?$basic_cstring_view@D@12@AEBUostream_params@detail@12@@Z
??0ostream@v12@fmt@@QEAA@$$QEAV012@@Z
??0pipe@v12@fmt@@QEAA@$$QEAU012@@Z
??0pipe@v12@fmt@@QEAA@XZ
??0utf8_to_utf16@detail@v12@fmt@@QEAA@V?$basic_string_view@D@23@@Z
??1buffered_file@v12@fmt@@QEAA@XZ
??1file@v12@fmt@@QEAA@XZ
??1ostream@v12@fmt@@QEAA@XZ
??1pipe@v12@fmt@@QEAA@XZ
??4file@v12@fmt@@QEAAAEAV012@$$QEAV012@@Z
??4pipe@v12@fmt@@QEAAAEAU012@$$QEAU012@@Z
?assert_fail@v12@fmt@@YAXPEBDH0@Z
?close@buffered_file@v12@fmt@@QEAAXXZ
?close@file@v12@fmt@@QEAAXXZ
?descriptor@buffered_file@v12@fmt@@QEBAHXZ
?descriptor@file@v12@fmt@@QEBAHXZ
?do_put@?$format_facet@Vlocale@std@@@v12@fmt@@MEBA_NV?$basic_appender@D@23@Vloc_value@23@AEBUformat_specs@23@@Z
?do_report_error@detail@v12@fmt@@YAXP6AXAEAV?$buffer@D@123@HPEBD@ZH1@Z
?dup2@file@v12@fmt@@QEAAXH@Z
?dup2@file@v12@fmt@@QEAAXHAEAVerror_code@std@@@Z
?dup@file@v12@fmt@@SA?AV123@H@Z
?fdopen@file@v12@fmt@@QEAA?AVbuffered_file@23@PEBD@Z
?format_error_code@detail@v12@fmt@@YAXAEAV?$buffer@D@123@HV?$basic_string_view@D@23@@Z
?format_system_error@v12@fmt@@YAXAEAV?$buffer@D@detail@12@HPEBD@Z
?format_windows_error@detail@v12@fmt@@YAXAEAV?$buffer@D@123@HPEBD@Z
?get_cached_power@dragonbox@detail@v12@fmt@@YA?AVuint128_fallback@234@H@Z
?grow@ostream@v12@fmt@@CAXAEAV?$buffer@D@detail@23@_K@Z
?id@?$format_facet@Vlocale@std@@@v12@fmt@@2V0locale@std@@A DATA
?is_printable@detail@v12@fmt@@YA_NI@Z
?open_windows_file@file@v12@fmt@@SA?AV123@V?$basic_cstring_view@_W@23@H@Z
?print@detail@v12@fmt@@YAXPEAU_iobuf@@V?$basic_string_view@D@23@@Z
?read@file@v12@fmt@@QEAA_KPEAX_K@Z
?report_error@v12@fmt@@YAXPEBD@Z
?report_system_error@v12@fmt@@YAXHPEBD@Z
?report_windows_error@v12@fmt@@YAXHPEBD@Z
?size@file@v12@fmt@@QEBA_JXZ
?system_category@v12@fmt@@YAAEBVerror_category@std@@XZ
?vformat@v12@fmt@@YA?AV?$basic_string@DU?$char_traits@D@std@@V?$allocator@D@2@@std@@V?$basic_string_view@D@12@V?$basic_format_args@Vcontext@v12@fmt@@@12@@Z
?vformat_to@detail@v12@fmt@@YAXAEAV?$buffer@D@123@V?$basic_string_view@D@23@V?$basic_format_args@Vcontext@v12@fmt@@@23@Vlocale_ref@23@@Z
?vprint@v12@fmt@@YAXPEAU_iobuf@@V?$basic_string_view@D@12@V?$basic_format_args@Vcontext@v12@fmt@@@12@@Z
?vprint@v12@fmt@@YAXV?$basic_string_view@D@12@V?$basic_format_args@Vcontext@v12@fmt@@@12@@Z
?vprint_buffered@v12@fmt@@YAXPEAU_iobuf@@V?$basic_string_view@D@12@V?$basic_format_args@Vcontext@v12@fmt@@@12@@Z
?vprint_mojibake@detail@v12@fmt@@YAXPEAU_iobuf@@V?$basic_string_view@D@23@V?$basic_format_args@Vcontext@v12@fmt@@@23@_N@Z
?vprintln@v12@fmt@@YAXPEAU_iobuf@@V?$basic_string_view@D@12@V?$basic_format_args@Vcontext@v12@fmt@@@12@@Z
?vsystem_error@v12@fmt@@YA?AVsystem_error@std@@HV?$basic_string_view@D@12@V?$basic_format_args@Vcontext@v12@fmt@@@12@@Z
?vwindows_error@v12@fmt@@YA?AVsystem_error@std@@HV?$basic_string_view@D@12@V?$basic_format_args@Vcontext@v12@fmt@@@12@@Z
?write@file@v12@fmt@@QEAA_KPEBX_K@Z
?write_console@detail@v12@fmt@@YA_NHV?$basic_string_view@D@23@@Z
?write_loc@detail@v12@fmt@@YA_NV?$basic_appender@D@23@Vloc_value@23@AEBUformat_specs@23@Vlocale_ref@23@@Z
