;
; Definition file of srt.dll
; Automatic generated by gendef
; written by Kai Tietz 2008
;
LIBRARY "srt.dll"
EXPORTS
??0LogDispatcher@srt_logging@@QEAA@HW4type@LogLevel@1@PEBD1AEAULogConfig@1@@Z
??1LogDispatcher@srt_logging@@QEAA@XZ
??4LogDispatcher@srt_logging@@QEAAAEAU01@AEBU01@@Z
??RLogDispatcher@srt_logging@@QEAA?AUProxy@01@XZ
?CheckEnabled@LogDispatcher@srt_logging@@QEAA_NXZ
?CreateLogLinePrefix@LogDispatcher@srt_logging@@QEAAXAEAV?$basic_ostringstream@DU?$char_traits@D@std@@V?$allocator@D@2@@std@@@Z
?ERROR@UDT@@3HB DATA
?INVALID_SOCK@UDT@@3HB DATA
?MAX_PREFIX_SIZE@LogDispatcher@srt_logging@@0_KB DATA
?SendLogLine@LogDispatcher@srt_logging@@QEAAXPEBDHAEBV?$basic_string@DU?$char_traits@D@std@@V?$allocator@D@2@@std@@1@Z
?accept@UDT@@YAHHPEAUsockaddr@@PEAH@Z
?addlogfa@srt@@YAXULogFA@srt_logging@@@Z
?bind2@UDT@@YAHH_K@Z
?bind@UDT@@YAHHPEBUsockaddr@@H@Z
?bstats@UDT@@YAHHPEAUCBytePerfMon@@_N@Z
?cleanup@UDT@@YAHXZ
?close@UDT@@YAHH@Z
?connect@UDT@@YAHHPEBUsockaddr@@H@Z
?dellogfa@srt@@YAXULogFA@srt_logging@@@Z
?epoll_add_ssock@UDT@@YAHH_KPEBH@Z
?epoll_add_usock@UDT@@YAHHHPEBH@Z
?epoll_create@UDT@@YAHXZ
?epoll_release@UDT@@YAHH@Z
?epoll_remove_ssock@UDT@@YAHH_K@Z
?epoll_remove_usock@UDT@@YAHHH@Z
?epoll_update_ssock@UDT@@YAHH_KPEBH@Z
?epoll_update_usock@UDT@@YAHHHPEBH@Z
?epoll_uwait@UDT@@YAHHPEAUSRT_EPOLL_EVENT_STR@@H_J@Z
?epoll_wait2@UDT@@YAHHPEAH000_JPEA_K020@Z
?epoll_wait@UDT@@YAHHPEAV?$set@HU?$less@H@std@@V?$allocator@H@2@@std@@0_JPEAV?$set@_KU?$less@_K@std@@V?$allocator@_K@2@@3@2@Z
?getlasterror@UDT@@YAAEAVCUDTException@srt@@XZ
?getlasterror_code@UDT@@YAHXZ
?getlasterror_desc@UDT@@YAPEBDXZ
?getpeername@UDT@@YAHHPEAUsockaddr@@PEAH@Z
?getsockname@UDT@@YAHHPEAUsockaddr@@PEAH@Z
?getsockopt@UDT@@YAHHHW4SRT_SOCKOPT@@PEAXPEAH@Z
?getsockstate@UDT@@YA?AW4SRT_SOCKSTATUS@@H@Z
?getstreamid@srt@@YA?AV?$basic_string@DU?$char_traits@D@std@@V?$allocator@D@2@@std@@H@Z
?isset@LogDispatcher@srt_logging@@AEAA_NH@Z
?listen@UDT@@YAHHH@Z
?recv@UDT@@YAHHPEADHH@Z
?recvfile2@UDT@@YA_JHPEBDPEA_J_JH@Z
?recvfile@UDT@@YA_JHAEAV?$basic_fstream@DU?$char_traits@D@std@@@std@@AEA_J_JH@Z
?recvmsg@UDT@@YAHHPEADH@Z
?resetlogfa@srt@@YAXPEBH_K@Z
?resetlogfa@srt@@YAXV?$set@ULogFA@srt_logging@@U?$less@ULogFA@srt_logging@@@std@@V?$allocator@ULogFA@srt_logging@@@4@@std@@@Z
?select@UDT@@YAHHPEAV?$set@HU?$less@H@std@@V?$allocator@H@2@@std@@00PEBUtimeval@@@Z
?selectEx@UDT@@YAHAEBV?$vector@HV?$allocator@H@std@@@std@@PEAV23@11_J@Z
?send@UDT@@YAHHPEBDHH@Z
?sendfile2@UDT@@YA_JHPEBDPEA_J_JH@Z
?sendfile@UDT@@YA_JHAEAV?$basic_fstream@DU?$char_traits@D@std@@@std@@AEA_J_JH@Z
?sendmsg@UDT@@YAHHPEBDHH_N_J@Z
?setlogflags@srt@@YAXH@Z
?setloghandler@srt@@YAXPEAXP6AX0HPEBDH11@Z@Z
?setloglevel@srt@@YAXW4type@LogLevel@srt_logging@@@Z
?setlogstream@srt@@YAXAEAV?$basic_ostream@DU?$char_traits@D@std@@@std@@@Z
?setsockopt@UDT@@YAHHHW4SRT_SOCKOPT@@PEBXH@Z
?setstreamid@srt@@YA_NHAEBV?$basic_string@DU?$char_traits@D@std@@V?$allocator@D@2@@std@@@Z
?srt_logger_config@@3ULogConfig@srt_logging@@A DATA
?startup@UDT@@YAHXZ
srt_accept
srt_accept_bond
srt_addlogfa
srt_bind
srt_bind_acquire
srt_bistats
srt_bstats
srt_cleanup
srt_clearlasterror
srt_clock_type
srt_close
srt_config_add
srt_connect
srt_connect_bind
srt_connect_callback
srt_connect_debug
srt_connect_group
srt_connection_time
srt_create_config
srt_create_group
srt_create_socket
srt_delete_config
srt_dellogfa
srt_epoll_add_ssock
srt_epoll_add_usock
srt_epoll_clear_usocks
srt_epoll_create
srt_epoll_release
srt_epoll_remove_ssock
srt_epoll_remove_usock
srt_epoll_set
srt_epoll_update_ssock
srt_epoll_update_usock
srt_epoll_uwait
srt_epoll_wait
srt_getlasterror
srt_getlasterror_str
srt_getpeername
srt_getrejectreason
srt_getsndbuffer
srt_getsockflag
srt_getsockname
srt_getsockopt
srt_getsockstate
srt_getversion
srt_group_data
srt_groupof
srt_listen
srt_listen_callback
srt_msgctrl_default DATA
srt_msgctrl_init
srt_prepare_endpoint
srt_recv
srt_recvfile
srt_recvmsg
srt_recvmsg2
srt_rejectreason_msg DATA
srt_rejectreason_str
srt_rendezvous
srt_resetlogfa
srt_send
srt_sendfile
srt_sendmsg
srt_sendmsg2
srt_setlogflags
srt_setloghandler
srt_setloglevel
srt_setrejectreason
srt_setsockflag
srt_setsockopt
srt_socket
srt_startup
srt_strerror
srt_time_now
